target datalayout = "e-m:e-p270:32:32-p271:32:32-p272:64:64-i64:64-i128:128-f80:128-n8:16:32:64-S128"
target triple = "x86_64-unknown-linux-gnu"

%"class.cvc5::internal::prop::LearnedDb" = type { %"class.cvc5::context::CDHashSet", %"class.cvc5::context::CDHashSet", %"class.cvc5::context::CDHashSet", %"class.cvc5::context::CDHashSet", %"class.cvc5::context::CDHashSet", %"class.cvc5::context::CDHashSet" }
%"class.cvc5::context::CDHashSet" = type { %"class.cvc5::context::CDInsertHashMap" }
%"class.cvc5::context::CDInsertHashMap" = type { %"class.cvc5::context::ContextObj", ptr, i64 }
%"class.cvc5::context::ContextObj" = type { ptr, ptr, ptr, ptr, ptr }

; Function Attrs: mustprogress nounwind uwtable
define hidden noundef nonnull align 8 dereferenceable(56) ptr @_ZNK4cvc58internal4prop9LearnedDb13getLiteralSetENS_5modes14LearnedLitTypeE(ptr noundef nonnull align 8 dereferenceable(336) %this, i32 noundef %ltype) #5 align 2 {
entry:
  %retval = alloca ptr, align 8
  %this.addr = alloca ptr, align 8
  %ltype.addr = alloca i32, align 4
  store ptr %this, ptr %this.addr, align 8
  store i32 %ltype, ptr %ltype.addr, align 4
  %this1 = load ptr, ptr %this.addr, align 8
  %0 = load i32, ptr %ltype.addr, align 4
  switch i32 %0, label %sw.default [
    i32 0, label %sw.bb
    i32 1, label %sw.bb2
    i32 2, label %sw.bb3
    i32 3, label %sw.bb4
    i32 4, label %sw.bb5
  ]

sw.bb:                                            ; preds = %entry
  %d_preprocessSolvedLits = getelementptr inbounds %"class.cvc5::internal::prop::LearnedDb", ptr %this1, i32 0, i32 0
  store ptr %d_preprocessSolvedLits, ptr %retval, align 8
  br label %return

sw.bb2:                                           ; preds = %entry
  %d_preprocessLits = getelementptr inbounds %"class.cvc5::internal::prop::LearnedDb", ptr %this1, i32 0, i32 1
  store ptr %d_preprocessLits, ptr %retval, align 8
  br label %return

sw.bb3:                                           ; preds = %entry
  %d_inputLits = getelementptr inbounds %"class.cvc5::internal::prop::LearnedDb", ptr %this1, i32 0, i32 2
  store ptr %d_inputLits, ptr %retval, align 8
  br label %return

sw.bb4:                                           ; preds = %entry
  %d_solvableLits = getelementptr inbounds %"class.cvc5::internal::prop::LearnedDb", ptr %this1, i32 0, i32 3
  store ptr %d_solvableLits, ptr %retval, align 8
  br label %return

sw.bb5:                                           ; preds = %entry
  %d_cpropLits = getelementptr inbounds %"class.cvc5::internal::prop::LearnedDb", ptr %this1, i32 0, i32 4
  store ptr %d_cpropLits, ptr %retval, align 8
  br label %return

sw.default:                                       ; preds = %entry
  br label %sw.epilog

sw.epilog:                                        ; preds = %sw.default
  %d_internalLits = getelementptr inbounds %"class.cvc5::internal::prop::LearnedDb", ptr %this1, i32 0, i32 5
  store ptr %d_internalLits, ptr %retval, align 8
  br label %return

return:                                           ; preds = %sw.epilog, %sw.bb5, %sw.bb4, %sw.bb3, %sw.bb2, %sw.bb
  %1 = load ptr, ptr %retval, align 8
  ret ptr %1
}