; Function Attrs: mustprogress nofree norecurse nosync nounwind willreturn memory(none) uwtable
define hidden noundef nonnull align 8 dereferenceable(56) ptr @_ZNK4cvc58internal4prop9LearnedDb13getLiteralSetENS_5modes14LearnedLitTypeE(ptr noundef nonnull readnone align 8 dereferenceable(336) %this, i32 noundef %ltype) local_unnamed_addr #5 align 2 {
entry:
  switch i32 %ltype, label %sw.epilog [
    i32 0, label %return
    i32 1, label %sw.bb2
    i32 2, label %sw.bb3
    i32 3, label %sw.bb4
    i32 4, label %sw.bb5
  ]

sw.bb2:                                           ; preds = %entry
  %d_preprocessLits = getelementptr inbounds i8, ptr %this, i64 56
  br label %return

sw.bb3:                                           ; preds = %entry
  %d_inputLits = getelementptr inbounds i8, ptr %this, i64 112
  br label %return

sw.bb4:                                           ; preds = %entry
  %d_solvableLits = getelementptr inbounds i8, ptr %this, i64 168
  br label %return

sw.bb5:                                           ; preds = %entry
  %d_cpropLits = getelementptr inbounds i8, ptr %this, i64 224
  br label %return

sw.epilog:                                        ; preds = %entry
  %d_internalLits = getelementptr inbounds i8, ptr %this, i64 280
  br label %return

return:                                           ; preds = %entry, %sw.epilog, %sw.bb5, %sw.bb4, %sw.bb3, %sw.bb2
  %retval.0 = phi ptr [ %d_internalLits, %sw.epilog ], [ %d_cpropLits, %sw.bb5 ], [ %d_solvableLits, %sw.bb4 ], [ %d_inputLits, %sw.bb3 ], [ %d_preprocessLits, %sw.bb2 ], [ %this, %entry ]
  ret ptr %retval.0
}